; Function Attrs: null_pointer_is_valid sspstrong uwtable
define internal i32 @dissect_ber_ObjectDescriptor(i1 noundef zeroext %0, ptr noundef %1, i32 noundef %2, ptr noundef %3, ptr noundef %4, i32 noundef %5) #0 {
  %.not = icmp eq ptr %3, null
  br i1 %.not, label %7, label %8

7:                                                ; preds = %6
  tail call void (ptr, ...) @proto_report_dissector_bug(ptr noundef nonnull @.str.367, ptr noundef nonnull @.str.11, i32 noundef 4132, ptr noundef nonnull @.str.368) #15
  unreachable

8:                                                ; preds = %6
  %9 = getelementptr inbounds nuw i8, ptr %3, i64 64
  %10 = tail call i32 @dissect_ber_constrained_restricted_string(i1 noundef zeroext %0, i32 noundef 7, ptr noundef nonnull %3, ptr noundef %4, ptr noundef %1, i32 noundef %2, i32 noundef -1, i32 noundef -1, i32 noundef %5, ptr noundef nonnull %9)
  ret i32 %10
}